; Function Attrs: nounwind uwtable
define void @Abc_ZddPrint(ptr noundef readonly captures(none) %0, i32 noundef %1) local_unnamed_addr #7 {
  %3 = load i32, ptr %0, align 8, !tbaa !29
  %4 = sext i32 %3 to i64
  %5 = tail call noalias ptr @calloc(i64 noundef %4, i64 noundef 4) #21
  tail call void @Abc_ZddPrint_rec(ptr noundef nonnull %0, i32 noundef %1, ptr noundef %5, i32 noundef 0)
  %.not = icmp eq ptr %5, null
  br i1 %.not, label %7, label %6

6:                                                ; preds = %2
  tail call void @free(ptr noundef nonnull %5) #23
  br label %7

7:                                                ; preds = %2, %6
  ret void
}